; Function Attrs: mustprogress nofree norecurse nosync nounwind willreturn memory(read, inaccessiblemem: none) uwtable
define hidden noundef zeroext i1 @_ZNK19XReferenceProcessor11is_inactiveEP7oopDescS1_13ReferenceType(ptr nocapture noundef nonnull readnone align 8 dereferenceable(72) %0, ptr noundef %1, ptr noundef readnone %2, i32 noundef %3) local_unnamed_addr #3 align 2 {
  %5 = icmp eq i32 %3, 3
  br i1 %5, label %6, label %14

6:                                                ; preds = %4
  %7 = load i32, ptr @_ZN23java_lang_ref_Reference12_next_offsetE, align 4
  %8 = ptrtoint ptr %1 to i64
  %9 = sext i32 %7 to i64
  %10 = add nsw i64 %9, %8
  %11 = inttoptr i64 %10 to ptr
  %12 = load ptr, ptr %11, align 8
  %13 = icmp ne ptr %12, null
  br label %16

14:                                               ; preds = %4
  %15 = icmp eq ptr %2, null
  br label %16

16:                                               ; preds = %14, %6
  %.0 = phi i1 [ %13, %6 ], [ %15, %14 ]
  ret i1 %.0
}